; Function Attrs: mustprogress nofree norecurse nosync nounwind willreturn memory(argmem: read) uwtable
define hidden i32 @VP8LPredictor5_C(ptr noundef readonly captures(none) %0, ptr noundef readonly captures(none) %1) #0 {
  %3 = load i32, ptr %0, align 4, !tbaa !3
  %4 = load i32, ptr %1, align 4, !tbaa !3
  %5 = getelementptr inbounds nuw i8, ptr %1, i64 4
  %6 = load i32, ptr %5, align 4, !tbaa !3
  %7 = xor i32 %6, %3
  %8 = lshr i32 %7, 1
  %9 = and i32 %8, 2139062143
  %10 = and i32 %6, %3
  %11 = add i32 %9, %10
  %12 = xor i32 %11, %4
  %13 = lshr i32 %12, 1
  %14 = and i32 %13, 2139062143
  %15 = and i32 %11, %4
  %16 = add i32 %14, %15
  ret i32 %16
}